target datalayout = "e-m:e-p270:32:32-p271:32:32-p272:64:64-i64:64-i128:128-f80:128-n8:16:32:64-S128"
target triple = "x86_64-pc-linux-gnu"

%struct.FT_Vector_ = type { i64, i64 }
%struct.SDF_Raster_Params_ = type { %struct.FT_Raster_Params_, i32, i8, i8, i8 }
%struct.FT_Raster_Params_ = type { ptr, ptr, i32, ptr, ptr, ptr, ptr, ptr, %struct.FT_BBox_ }
%struct.FT_BBox_ = type { i64, i64, i64, i64 }
%struct.FT_Bitmap_ = type { i32, i32, i32, ptr, i16, i8, i8, ptr }
%struct.BSDF_Worker_ = type { ptr, i32, i32, %struct.SDF_Raster_Params_ }
%struct.ED_ = type { i32, %struct.FT_Vector_, i8 }

; Function Attrs: nounwind uwtable
define internal zeroext i8 @map_fixed_to_sdf(i32 noundef %0, i32 noundef %1) #0 {
  %3 = alloca i32, align 4
  %4 = alloca i32, align 4
  %5 = alloca i8, align 1
  %6 = alloca i32, align 4
  store i32 %0, ptr %3, align 4, !tbaa !31
  store i32 %1, ptr %4, align 4, !tbaa !31
  call void @llvm.lifetime.start.p0(i64 1, ptr %5) #7
  call void @llvm.lifetime.start.p0(i64 4, ptr %6) #7
  %7 = load i32, ptr %3, align 4, !tbaa !31
  %8 = sext i32 %7 to i64
  %9 = load i32, ptr %4, align 4, !tbaa !31
  %10 = sext i32 %9 to i64
  %11 = call i64 @FT_DivFix(i64 noundef %8, i64 noundef %10)
  %12 = trunc i64 %11 to i32
  store i32 %12, ptr %3, align 4, !tbaa !31
  %13 = load i32, ptr %3, align 4, !tbaa !31
  %14 = icmp slt i32 %13, 0
  br i1 %14, label %15, label %18

15:                                               ; preds = %2
  %16 = load i32, ptr %3, align 4, !tbaa !31
  %17 = sub nsw i32 0, %16
  br label %20

18:                                               ; preds = %2
  %19 = load i32, ptr %3, align 4, !tbaa !31
  br label %20

20:                                               ; preds = %18, %15
  %21 = phi i32 [ %17, %15 ], [ %19, %18 ]
  store i32 %21, ptr %6, align 4, !tbaa !31
  %22 = load i32, ptr %6, align 4, !tbaa !31
  %23 = ashr i32 %22, 9
  store i32 %23, ptr %6, align 4, !tbaa !31
  %24 = load i32, ptr %3, align 4, !tbaa !31
  %25 = icmp sgt i32 %24, 0
  br i1 %25, label %26, label %30

26:                                               ; preds = %20
  %27 = load i32, ptr %6, align 4, !tbaa !31
  %28 = icmp sgt i32 %27, 127
  br i1 %28, label %29, label %30

29:                                               ; preds = %26
  store i32 127, ptr %6, align 4, !tbaa !31
  br label %30

30:                                               ; preds = %29, %26, %20
  %31 = load i32, ptr %3, align 4, !tbaa !31
  %32 = icmp slt i32 %31, 0
  br i1 %32, label %33, label %37

33:                                               ; preds = %30
  %34 = load i32, ptr %6, align 4, !tbaa !31
  %35 = icmp sgt i32 %34, 128
  br i1 %35, label %36, label %37

36:                                               ; preds = %33
  store i32 128, ptr %6, align 4, !tbaa !31
  br label %37

37:                                               ; preds = %36, %33, %30
  %38 = load i32, ptr %3, align 4, !tbaa !31
  %39 = icmp slt i32 %38, 0
  br i1 %39, label %40, label %45

40:                                               ; preds = %37
  %41 = load i32, ptr %6, align 4, !tbaa !31
  %42 = trunc i32 %41 to i8
  %43 = zext i8 %42 to i32
  %44 = sub nsw i32 128, %43
  br label %50

45:                                               ; preds = %37
  %46 = load i32, ptr %6, align 4, !tbaa !31
  %47 = trunc i32 %46 to i8
  %48 = zext i8 %47 to i32
  %49 = add nsw i32 %48, 128
  br label %50

50:                                               ; preds = %45, %40
  %51 = phi i32 [ %44, %40 ], [ %49, %45 ]
  %52 = trunc i32 %51 to i8
  store i8 %52, ptr %5, align 1, !tbaa !95
  %53 = load i8, ptr %5, align 1, !tbaa !95
  call void @llvm.lifetime.end.p0(i64 4, ptr %6) #7
  call void @llvm.lifetime.end.p0(i64 1, ptr %5) #7
  ret i8 %53
}

; Function Attrs: nounwind uwtable
define internal i32 @finalize_sdf(ptr noundef %0, ptr noundef %1) #0 {
  %3 = alloca ptr, align 8
  %4 = alloca ptr, align 8
  %5 = alloca i32, align 4
  %6 = alloca i32, align 4
  %7 = alloca i32, align 4
  %8 = alloca i32, align 4
  %9 = alloca i32, align 4
  %10 = alloca ptr, align 8
  %11 = alloca i32, align 4
  %12 = alloca i32, align 4
  %13 = alloca i32, align 4
  %14 = alloca i32, align 4
  %15 = alloca i8, align 1
  %16 = alloca i8, align 1
  store ptr %0, ptr %3, align 8, !tbaa !134
  store ptr %1, ptr %4, align 8, !tbaa !36
  call void @llvm.lifetime.start.p0(i64 4, ptr %5) #7
  store i32 0, ptr %5, align 4, !tbaa !31
  call void @llvm.lifetime.start.p0(i64 4, ptr %6) #7
  call void @llvm.lifetime.start.p0(i64 4, ptr %7) #7
  call void @llvm.lifetime.start.p0(i64 4, ptr %8) #7
  call void @llvm.lifetime.start.p0(i64 4, ptr %9) #7
  call void @llvm.lifetime.start.p0(i64 8, ptr %10) #7
  call void @llvm.lifetime.start.p0(i64 4, ptr %11) #7
  call void @llvm.lifetime.start.p0(i64 4, ptr %12) #7
  %17 = load ptr, ptr %3, align 8, !tbaa !134
  %18 = icmp ne ptr %17, null
  br i1 %18, label %19, label %22

19:                                               ; preds = %2
  %20 = load ptr, ptr %4, align 8, !tbaa !36
  %21 = icmp ne ptr %20, null
  br i1 %21, label %23, label %22

22:                                               ; preds = %19, %2
  store i32 6, ptr %5, align 4, !tbaa !31
  br label %130

23:                                               ; preds = %19
  %24 = load ptr, ptr %4, align 8, !tbaa !36
  %25 = getelementptr inbounds nuw %struct.FT_Bitmap_, ptr %24, i32 0, i32 1
  %26 = load i32, ptr %25, align 4, !tbaa !62
  store i32 %26, ptr %6, align 4, !tbaa !31
  %27 = load ptr, ptr %4, align 8, !tbaa !36
  %28 = getelementptr inbounds nuw %struct.FT_Bitmap_, ptr %27, i32 0, i32 0
  %29 = load i32, ptr %28, align 8, !tbaa !60
  store i32 %29, ptr %7, align 4, !tbaa !31
  %30 = load ptr, ptr %4, align 8, !tbaa !36
  %31 = getelementptr inbounds nuw %struct.FT_Bitmap_, ptr %30, i32 0, i32 3
  %32 = load ptr, ptr %31, align 8, !tbaa !59
  store ptr %32, ptr %10, align 8, !tbaa !25
  %33 = load i32, ptr %6, align 4, !tbaa !31
  %34 = load ptr, ptr %3, align 8, !tbaa !134
  %35 = getelementptr inbounds nuw %struct.BSDF_Worker_, ptr %34, i32 0, i32 1
  %36 = load i32, ptr %35, align 8, !tbaa !112
  %37 = icmp ne i32 %33, %36
  br i1 %37, label %44, label %38

38:                                               ; preds = %23
  %39 = load i32, ptr %7, align 4, !tbaa !31
  %40 = load ptr, ptr %3, align 8, !tbaa !134
  %41 = getelementptr inbounds nuw %struct.BSDF_Worker_, ptr %40, i32 0, i32 2
  %42 = load i32, ptr %41, align 4, !tbaa !113
  %43 = icmp ne i32 %39, %42
  br i1 %43, label %44, label %45

44:                                               ; preds = %38, %23
  store i32 6, ptr %5, align 4, !tbaa !31
  br label %130

45:                                               ; preds = %38
  %46 = load ptr, ptr %3, align 8, !tbaa !134
  %47 = getelementptr inbounds nuw %struct.BSDF_Worker_, ptr %46, i32 0, i32 3
  %48 = getelementptr inbounds nuw %struct.SDF_Raster_Params_, ptr %47, i32 0, i32 1
  %49 = load i32, ptr %48, align 8, !tbaa !152
  %50 = mul i32 %49, 65536
  store i32 %50, ptr %12, align 4, !tbaa !31
  %51 = load ptr, ptr %3, align 8, !tbaa !134
  %52 = getelementptr inbounds nuw %struct.BSDF_Worker_, ptr %51, i32 0, i32 3
  %53 = getelementptr inbounds nuw %struct.SDF_Raster_Params_, ptr %52, i32 0, i32 1
  %54 = load i32, ptr %53, align 8, !tbaa !152
  %55 = mul i32 %54, 65536
  store i32 %55, ptr %11, align 4, !tbaa !31
  store i32 0, ptr %9, align 4, !tbaa !31
  br label %56

56:                                               ; preds = %126, %45
  %57 = load i32, ptr %9, align 4, !tbaa !31
  %58 = load i32, ptr %7, align 4, !tbaa !31
  %59 = icmp slt i32 %57, %58
  br i1 %59, label %60, label %129

60:                                               ; preds = %56
  store i32 0, ptr %8, align 4, !tbaa !31
  br label %61

61:                                               ; preds = %122, %60
  %62 = load i32, ptr %8, align 4, !tbaa !31
  %63 = load i32, ptr %6, align 4, !tbaa !31
  %64 = icmp slt i32 %62, %63
  br i1 %64, label %65, label %125

65:                                               ; preds = %61
  call void @llvm.lifetime.start.p0(i64 4, ptr %13) #7
  call void @llvm.lifetime.start.p0(i64 4, ptr %14) #7
  call void @llvm.lifetime.start.p0(i64 1, ptr %15) #7
  call void @llvm.lifetime.start.p0(i64 1, ptr %16) #7
  %66 = load i32, ptr %9, align 4, !tbaa !31
  %67 = load i32, ptr %6, align 4, !tbaa !31
  %68 = mul nsw i32 %66, %67
  %69 = load i32, ptr %8, align 4, !tbaa !31
  %70 = add nsw i32 %68, %69
  store i32 %70, ptr %13, align 4, !tbaa !31
  %71 = load ptr, ptr %3, align 8, !tbaa !134
  %72 = getelementptr inbounds nuw %struct.BSDF_Worker_, ptr %71, i32 0, i32 0
  %73 = load ptr, ptr %72, align 8, !tbaa !109
  %74 = load i32, ptr %13, align 4, !tbaa !31
  %75 = sext i32 %74 to i64
  %76 = getelementptr inbounds %struct.ED_, ptr %73, i64 %75
  %77 = getelementptr inbounds nuw %struct.ED_, ptr %76, i32 0, i32 0
  %78 = load i32, ptr %77, align 8, !tbaa !147
  store i32 %78, ptr %14, align 4, !tbaa !31
  %79 = load i32, ptr %14, align 4, !tbaa !31
  %80 = icmp slt i32 %79, 0
  br i1 %80, label %85, label %81

81:                                               ; preds = %65
  %82 = load i32, ptr %14, align 4, !tbaa !31
  %83 = load i32, ptr %11, align 4, !tbaa !31
  %84 = icmp sgt i32 %82, %83
  br i1 %84, label %85, label %87

85:                                               ; preds = %81, %65
  %86 = load i32, ptr %11, align 4, !tbaa !31
  store i32 %86, ptr %14, align 4, !tbaa !31
  br label %87

87:                                               ; preds = %85, %81
  %88 = load ptr, ptr %3, align 8, !tbaa !134
  %89 = getelementptr inbounds nuw %struct.BSDF_Worker_, ptr %88, i32 0, i32 0
  %90 = load ptr, ptr %89, align 8, !tbaa !109
  %91 = load i32, ptr %13, align 4, !tbaa !31
  %92 = sext i32 %91 to i64
  %93 = getelementptr inbounds %struct.ED_, ptr %90, i64 %92
  %94 = getelementptr inbounds nuw %struct.ED_, ptr %93, i32 0, i32 2
  %95 = load i8, ptr %94, align 8, !tbaa !139
  %96 = zext i8 %95 to i32
  %97 = icmp slt i32 %96, 127
  %98 = select i1 %97, i32 -1, i32 1
  %99 = trunc i32 %98 to i8
  store i8 %99, ptr %16, align 1, !tbaa !95
  %100 = load ptr, ptr %3, align 8, !tbaa !134
  %101 = getelementptr inbounds nuw %struct.BSDF_Worker_, ptr %100, i32 0, i32 3
  %102 = getelementptr inbounds nuw %struct.SDF_Raster_Params_, ptr %101, i32 0, i32 2
  %103 = load i8, ptr %102, align 4, !tbaa !153
  %104 = icmp ne i8 %103, 0
  br i1 %104, label %105, label %110

105:                                              ; preds = %87
  %106 = load i8, ptr %16, align 1, !tbaa !95
  %107 = sext i8 %106 to i32
  %108 = sub nsw i32 0, %107
  %109 = trunc i32 %108 to i8
  store i8 %109, ptr %16, align 1, !tbaa !95
  br label %110

110:                                              ; preds = %105, %87
  %111 = load i32, ptr %14, align 4, !tbaa !31
  %112 = load i8, ptr %16, align 1, !tbaa !95
  %113 = sext i8 %112 to i32
  %114 = mul nsw i32 %111, %113
  %115 = load i32, ptr %12, align 4, !tbaa !31
  %116 = call zeroext i8 @map_fixed_to_sdf(i32 noundef %114, i32 noundef %115)
  store i8 %116, ptr %15, align 1, !tbaa !95
  %117 = load i8, ptr %15, align 1, !tbaa !95
  %118 = load ptr, ptr %10, align 8, !tbaa !25
  %119 = load i32, ptr %13, align 4, !tbaa !31
  %120 = sext i32 %119 to i64
  %121 = getelementptr inbounds i8, ptr %118, i64 %120
  store i8 %117, ptr %121, align 1, !tbaa !95
  call void @llvm.lifetime.end.p0(i64 1, ptr %16) #7
  call void @llvm.lifetime.end.p0(i64 1, ptr %15) #7
  call void @llvm.lifetime.end.p0(i64 4, ptr %14) #7
  call void @llvm.lifetime.end.p0(i64 4, ptr %13) #7
  br label %122

122:                                              ; preds = %110
  %123 = load i32, ptr %8, align 4, !tbaa !31
  %124 = add nsw i32 %123, 1
  store i32 %124, ptr %8, align 4, !tbaa !31
  br label %61, !llvm.loop !154

125:                                              ; preds = %61
  br label %126

126:                                              ; preds = %125
  %127 = load i32, ptr %9, align 4, !tbaa !31
  %128 = add nsw i32 %127, 1
  store i32 %128, ptr %9, align 4, !tbaa !31
  br label %56, !llvm.loop !155

129:                                              ; preds = %56
  br label %130

130:                                              ; preds = %129, %44, %22
  %131 = load i32, ptr %5, align 4, !tbaa !31
  call void @llvm.lifetime.end.p0(i64 4, ptr %12) #7
  call void @llvm.lifetime.end.p0(i64 4, ptr %11) #7
  call void @llvm.lifetime.end.p0(i64 8, ptr %10) #7
  call void @llvm.lifetime.end.p0(i64 4, ptr %9) #7
  call void @llvm.lifetime.end.p0(i64 4, ptr %8) #7
  call void @llvm.lifetime.end.p0(i64 4, ptr %7) #7
  call void @llvm.lifetime.end.p0(i64 4, ptr %6) #7
  call void @llvm.lifetime.end.p0(i64 4, ptr %5) #7
  ret i32 %131
}