; Function Attrs: nounwind uwtable
define internal fastcc range(i32 0, 7) i32 @finalize_sdf(ptr noundef nonnull readonly captures(none) %0, ptr noundef nonnull readonly captures(none) %1) unnamed_addr #2 {
  %3 = getelementptr inbounds nuw i8, ptr %1, i64 4
  %4 = load i32, ptr %3, align 4, !tbaa !47
  %5 = load i32, ptr %1, align 8, !tbaa !45
  %6 = getelementptr inbounds nuw i8, ptr %1, i64 16
  %7 = load ptr, ptr %6, align 8, !tbaa !44
  %8 = getelementptr inbounds nuw i8, ptr %0, i64 8
  %9 = load i32, ptr %8, align 8, !tbaa !86
  %.not = icmp eq i32 %4, %9
  br i1 %.not, label %10, label %.loopexit

10:                                               ; preds = %2
  %11 = getelementptr inbounds nuw i8, ptr %0, i64 12
  %12 = load i32, ptr %11, align 4, !tbaa !87
  %.not46 = icmp eq i32 %5, %12
  br i1 %.not46, label %13, label %.loopexit

13:                                               ; preds = %10
  %14 = getelementptr inbounds nuw i8, ptr %0, i64 112
  %15 = load i32, ptr %14, align 8, !tbaa !125
  %16 = shl i32 %15, 16
  %17 = icmp sgt i32 %5, 0
  br i1 %17, label %.preheader.lr.ph, label %.loopexit

.preheader.lr.ph:                                 ; preds = %13
  %18 = icmp sgt i32 %4, 0
  %19 = getelementptr inbounds nuw i8, ptr %0, i64 116
  %20 = sext i32 %16 to i64
  br i1 %18, label %.preheader.us.preheader, label %.loopexit

.preheader.us.preheader:                          ; preds = %.preheader.lr.ph
  %21 = zext nneg i32 %4 to i64
  %wide.trip.count55 = zext nneg i32 %5 to i64
  br label %.preheader.us

.preheader.us:                                    ; preds = %.preheader.us.preheader, %._crit_edge.us
  %indvars.iv52 = phi i64 [ 0, %.preheader.us.preheader ], [ %indvars.iv.next53, %._crit_edge.us ]
  %22 = mul nuw nsw i64 %indvars.iv52, %21
  br label %23

23:                                               ; preds = %.preheader.us, %23
  %indvars.iv = phi i64 [ 0, %.preheader.us ], [ %indvars.iv.next, %23 ]
  %24 = add nuw nsw i64 %indvars.iv, %22
  %25 = load ptr, ptr %0, align 8, !tbaa !83
  %26 = getelementptr inbounds nuw %struct.ED_, ptr %25, i64 %24
  %27 = load i32, ptr %26, align 8, !tbaa !112
  %28 = icmp slt i32 %27, 0
  %29 = tail call i32 @llvm.smin.i32(i32 %27, i32 %16)
  %.038.us = select i1 %28, i32 %16, i32 %29
  %30 = getelementptr inbounds nuw %struct.ED_, ptr %25, i64 %24, i32 2
  %31 = load i8, ptr %30, align 8, !tbaa !105
  %32 = icmp ult i8 %31, 127
  %33 = load i8, ptr %19, align 4, !tbaa !126
  %.not47.us = icmp eq i8 %33, 0
  %34 = xor i1 %32, %.not47.us
  %35 = sub nsw i32 0, %.038.us
  %36 = select i1 %34, i32 %.038.us, i32 %35
  %37 = sext i32 %36 to i64
  %38 = tail call i64 @FT_DivFix(i64 noundef %37, i64 noundef %20) #11
  %39 = trunc i64 %38 to i32
  %40 = icmp slt i32 %39, 0
  %41 = tail call i32 @llvm.abs.i32(i32 %39, i1 true)
  %42 = lshr i32 %41, 9
  %43 = icmp sgt i32 %39, 0
  %44 = icmp samesign ugt i32 %41, 65535
  %or.cond.i.us = select i1 %43, i1 %44, i1 false
  %spec.store.select4.i.us = select i1 %or.cond.i.us, i32 127, i32 %42
  %45 = tail call i32 @llvm.umin.i32(i32 %spec.store.select4.i.us, i32 128)
  %46 = sub nsw i32 0, %45
  %.p.i.us = select i1 %40, i32 %46, i32 %spec.store.select4.i.us
  %47 = trunc i32 %.p.i.us to i8
  %48 = xor i8 %47, -128
  %49 = getelementptr inbounds nuw i8, ptr %7, i64 %24
  store i8 %48, ptr %49, align 1, !tbaa !77
  %indvars.iv.next = add nuw nsw i64 %indvars.iv, 1
  %exitcond.not = icmp eq i64 %indvars.iv.next, %21
  br i1 %exitcond.not, label %._crit_edge.us, label %23, !llvm.loop !127

._crit_edge.us:                                   ; preds = %23
  %indvars.iv.next53 = add nuw nsw i64 %indvars.iv52, 1
  %exitcond56.not = icmp eq i64 %indvars.iv.next53, %wide.trip.count55
  br i1 %exitcond56.not, label %.loopexit, label %.preheader.us, !llvm.loop !128

.loopexit:                                        ; preds = %._crit_edge.us, %.preheader.lr.ph, %13, %2, %10
  %.037 = phi i32 [ 6, %10 ], [ 6, %2 ], [ 0, %13 ], [ 0, %.preheader.lr.ph ], [ 0, %._crit_edge.us ]
  ret i32 %.037
}